target datalayout = "e-m:e-p270:32:32-p271:32:32-p272:64:64-i64:64-i128:128-f80:128-n8:16:32:64-S128"
target triple = "x86_64-pc-linux-gnu"

%struct.GetByteContext = type { ptr, ptr, ptr }
%struct.PutByteContext = type { ptr, ptr, ptr, i32 }

; Function Attrs: alwaysinline nounwind uwtable
define internal i32 @bytestream_get_byte(ptr noundef %0) #4 {
  %2 = alloca ptr, align 8
  store ptr %0, ptr %2, align 8, !tbaa !84
  %3 = load ptr, ptr %2, align 8, !tbaa !84
  %4 = load ptr, ptr %3, align 8, !tbaa !58
  %5 = getelementptr inbounds i8, ptr %4, i64 1
  store ptr %5, ptr %3, align 8, !tbaa !58
  %6 = load ptr, ptr %2, align 8, !tbaa !84
  %7 = load ptr, ptr %6, align 8, !tbaa !58
  %8 = getelementptr inbounds i8, ptr %7, i64 -1
  %9 = getelementptr inbounds i8, ptr %8, i64 0
  %10 = load i8, ptr %9, align 1, !tbaa !40
  %11 = zext i8 %10 to i32
  ret i32 %11
}

; Function Attrs: alwaysinline nounwind uwtable
define internal i32 @bytestream2_get_byteu(ptr noundef %0) #4 {
  %2 = alloca ptr, align 8
  store ptr %0, ptr %2, align 8, !tbaa !50
  %3 = load ptr, ptr %2, align 8, !tbaa !50
  %4 = getelementptr inbounds nuw %struct.GetByteContext, ptr %3, i32 0, i32 0
  %5 = call i32 @bytestream_get_byte(ptr noundef %4)
  ret i32 %5
}

; Function Attrs: alwaysinline nounwind uwtable
define internal i32 @bytestream2_tell(ptr noundef %0) #4 {
  %2 = alloca ptr, align 8
  store ptr %0, ptr %2, align 8, !tbaa !50
  %3 = load ptr, ptr %2, align 8, !tbaa !50
  %4 = getelementptr inbounds nuw %struct.GetByteContext, ptr %3, i32 0, i32 0
  %5 = load ptr, ptr %4, align 8, !tbaa !63
  %6 = load ptr, ptr %2, align 8, !tbaa !50
  %7 = getelementptr inbounds nuw %struct.GetByteContext, ptr %6, i32 0, i32 2
  %8 = load ptr, ptr %7, align 8, !tbaa !64
  %9 = ptrtoint ptr %5 to i64
  %10 = ptrtoint ptr %8 to i64
  %11 = sub i64 %9, %10
  %12 = trunc i64 %11 to i32
  ret i32 %12
}

; Function Attrs: alwaysinline nounwind willreturn memory(none) uwtable
define internal i32 @av_clip_c(i32 noundef %0, i32 noundef %1, i32 noundef %2) #8 {
  %4 = alloca i32, align 4
  %5 = alloca i32, align 4
  %6 = alloca i32, align 4
  %7 = alloca i32, align 4
  store i32 %0, ptr %5, align 4, !tbaa !39
  store i32 %1, ptr %6, align 4, !tbaa !39
  store i32 %2, ptr %7, align 4, !tbaa !39
  %8 = load i32, ptr %5, align 4, !tbaa !39
  %9 = load i32, ptr %6, align 4, !tbaa !39
  %10 = icmp slt i32 %8, %9
  br i1 %10, label %11, label %13

11:                                               ; preds = %3
  %12 = load i32, ptr %6, align 4, !tbaa !39
  store i32 %12, ptr %4, align 4
  br label %21

13:                                               ; preds = %3
  %14 = load i32, ptr %5, align 4, !tbaa !39
  %15 = load i32, ptr %7, align 4, !tbaa !39
  %16 = icmp sgt i32 %14, %15
  br i1 %16, label %17, label %19

17:                                               ; preds = %13
  %18 = load i32, ptr %7, align 4, !tbaa !39
  store i32 %18, ptr %4, align 4
  br label %21

19:                                               ; preds = %13
  %20 = load i32, ptr %5, align 4, !tbaa !39
  store i32 %20, ptr %4, align 4
  br label %21

21:                                               ; preds = %19, %17, %11
  %22 = load i32, ptr %4, align 4
  ret i32 %22
}

; Function Attrs: alwaysinline nounwind uwtable
define internal void @bytestream2_put_byte(ptr noundef %0, i32 noundef %1) #4 {
  %3 = alloca ptr, align 8
  %4 = alloca i32, align 4
  store ptr %0, ptr %3, align 8, !tbaa !52
  store i32 %1, ptr %4, align 4, !tbaa !39
  %5 = load ptr, ptr %3, align 8, !tbaa !52
  %6 = getelementptr inbounds nuw %struct.PutByteContext, ptr %5, i32 0, i32 3
  %7 = load i32, ptr %6, align 8, !tbaa !69
  %8 = icmp ne i32 %7, 0
  br i1 %8, label %33, label %9

9:                                                ; preds = %2
  %10 = load ptr, ptr %3, align 8, !tbaa !52
  %11 = getelementptr inbounds nuw %struct.PutByteContext, ptr %10, i32 0, i32 1
  %12 = load ptr, ptr %11, align 8, !tbaa !68
  %13 = load ptr, ptr %3, align 8, !tbaa !52
  %14 = getelementptr inbounds nuw %struct.PutByteContext, ptr %13, i32 0, i32 0
  %15 = load ptr, ptr %14, align 8, !tbaa !66
  %16 = ptrtoint ptr %12 to i64
  %17 = ptrtoint ptr %15 to i64
  %18 = sub i64 %16, %17
  %19 = icmp sge i64 %18, 1
  br i1 %19, label %20, label %33

20:                                               ; preds = %9
  br label %21

21:                                               ; preds = %20
  %22 = load i32, ptr %4, align 4, !tbaa !39
  %23 = trunc i32 %22 to i8
  %24 = load ptr, ptr %3, align 8, !tbaa !52
  %25 = getelementptr inbounds nuw %struct.PutByteContext, ptr %24, i32 0, i32 0
  %26 = load ptr, ptr %25, align 8, !tbaa !66
  %27 = getelementptr inbounds i8, ptr %26, i64 0
  store i8 %23, ptr %27, align 1, !tbaa !40
  br label %28

28:                                               ; preds = %21
  %29 = load ptr, ptr %3, align 8, !tbaa !52
  %30 = getelementptr inbounds nuw %struct.PutByteContext, ptr %29, i32 0, i32 0
  %31 = load ptr, ptr %30, align 8, !tbaa !66
  %32 = getelementptr inbounds i8, ptr %31, i64 1
  store ptr %32, ptr %30, align 8, !tbaa !66
  br label %36

33:                                               ; preds = %9, %2
  %34 = load ptr, ptr %3, align 8, !tbaa !52
  %35 = getelementptr inbounds nuw %struct.PutByteContext, ptr %34, i32 0, i32 3
  store i32 1, ptr %35, align 8, !tbaa !69
  br label %36

36:                                               ; preds = %33, %28
  ret void
}

; Function Attrs: alwaysinline nounwind uwtable
define internal i32 @bytestream2_get_byte(ptr noundef %0) #4 {
  %2 = alloca i32, align 4
  %3 = alloca ptr, align 8
  store ptr %0, ptr %3, align 8, !tbaa !50
  %4 = load ptr, ptr %3, align 8, !tbaa !50
  %5 = getelementptr inbounds nuw %struct.GetByteContext, ptr %4, i32 0, i32 1
  %6 = load ptr, ptr %5, align 8, !tbaa !65
  %7 = load ptr, ptr %3, align 8, !tbaa !50
  %8 = getelementptr inbounds nuw %struct.GetByteContext, ptr %7, i32 0, i32 0
  %9 = load ptr, ptr %8, align 8, !tbaa !63
  %10 = ptrtoint ptr %6 to i64
  %11 = ptrtoint ptr %9 to i64
  %12 = sub i64 %10, %11
  %13 = icmp slt i64 %12, 1
  br i1 %13, label %14, label %20

14:                                               ; preds = %1
  %15 = load ptr, ptr %3, align 8, !tbaa !50
  %16 = getelementptr inbounds nuw %struct.GetByteContext, ptr %15, i32 0, i32 1
  %17 = load ptr, ptr %16, align 8, !tbaa !65
  %18 = load ptr, ptr %3, align 8, !tbaa !50
  %19 = getelementptr inbounds nuw %struct.GetByteContext, ptr %18, i32 0, i32 0
  store ptr %17, ptr %19, align 8, !tbaa !63
  store i32 0, ptr %2, align 4
  br label %23

20:                                               ; preds = %1
  %21 = load ptr, ptr %3, align 8, !tbaa !50
  %22 = call i32 @bytestream2_get_byteu(ptr noundef %21)
  store i32 %22, ptr %2, align 4
  br label %23

23:                                               ; preds = %20, %14
  %24 = load i32, ptr %2, align 4
  ret i32 %24
}

; Function Attrs: alwaysinline nounwind uwtable
define internal i32 @bytestream2_seek(ptr noundef %0, i32 noundef %1, i32 noundef %2) #4 {
  %4 = alloca i32, align 4
  %5 = alloca ptr, align 8
  %6 = alloca i32, align 4
  %7 = alloca i32, align 4
  store ptr %0, ptr %5, align 8, !tbaa !50
  store i32 %1, ptr %6, align 4, !tbaa !39
  store i32 %2, ptr %7, align 4, !tbaa !39
  %8 = load i32, ptr %7, align 4, !tbaa !39
  switch i32 %8, label %82 [
    i32 1, label %9
    i32 2, label %39
    i32 0, label %61
  ]

9:                                                ; preds = %3
  %10 = load i32, ptr %6, align 4, !tbaa !39
  %11 = load ptr, ptr %5, align 8, !tbaa !50
  %12 = getelementptr inbounds nuw %struct.GetByteContext, ptr %11, i32 0, i32 0
  %13 = load ptr, ptr %12, align 8, !tbaa !63
  %14 = load ptr, ptr %5, align 8, !tbaa !50
  %15 = getelementptr inbounds nuw %struct.GetByteContext, ptr %14, i32 0, i32 2
  %16 = load ptr, ptr %15, align 8, !tbaa !64
  %17 = ptrtoint ptr %13 to i64
  %18 = ptrtoint ptr %16 to i64
  %19 = sub i64 %17, %18
  %20 = sub nsw i64 0, %19
  %21 = trunc i64 %20 to i32
  %22 = load ptr, ptr %5, align 8, !tbaa !50
  %23 = getelementptr inbounds nuw %struct.GetByteContext, ptr %22, i32 0, i32 1
  %24 = load ptr, ptr %23, align 8, !tbaa !65
  %25 = load ptr, ptr %5, align 8, !tbaa !50
  %26 = getelementptr inbounds nuw %struct.GetByteContext, ptr %25, i32 0, i32 0
  %27 = load ptr, ptr %26, align 8, !tbaa !63
  %28 = ptrtoint ptr %24 to i64
  %29 = ptrtoint ptr %27 to i64
  %30 = sub i64 %28, %29
  %31 = trunc i64 %30 to i32
  %32 = call i32 @av_clip_c(i32 noundef %10, i32 noundef %21, i32 noundef %31) #11
  store i32 %32, ptr %6, align 4, !tbaa !39
  %33 = load i32, ptr %6, align 4, !tbaa !39
  %34 = load ptr, ptr %5, align 8, !tbaa !50
  %35 = getelementptr inbounds nuw %struct.GetByteContext, ptr %34, i32 0, i32 0
  %36 = load ptr, ptr %35, align 8, !tbaa !63
  %37 = sext i32 %33 to i64
  %38 = getelementptr inbounds i8, ptr %36, i64 %37
  store ptr %38, ptr %35, align 8, !tbaa !63
  br label %83

39:                                               ; preds = %3
  %40 = load i32, ptr %6, align 4, !tbaa !39
  %41 = load ptr, ptr %5, align 8, !tbaa !50
  %42 = getelementptr inbounds nuw %struct.GetByteContext, ptr %41, i32 0, i32 1
  %43 = load ptr, ptr %42, align 8, !tbaa !65
  %44 = load ptr, ptr %5, align 8, !tbaa !50
  %45 = getelementptr inbounds nuw %struct.GetByteContext, ptr %44, i32 0, i32 2
  %46 = load ptr, ptr %45, align 8, !tbaa !64
  %47 = ptrtoint ptr %43 to i64
  %48 = ptrtoint ptr %46 to i64
  %49 = sub i64 %47, %48
  %50 = sub nsw i64 0, %49
  %51 = trunc i64 %50 to i32
  %52 = call i32 @av_clip_c(i32 noundef %40, i32 noundef %51, i32 noundef 0) #11
  store i32 %52, ptr %6, align 4, !tbaa !39
  %53 = load ptr, ptr %5, align 8, !tbaa !50
  %54 = getelementptr inbounds nuw %struct.GetByteContext, ptr %53, i32 0, i32 1
  %55 = load ptr, ptr %54, align 8, !tbaa !65
  %56 = load i32, ptr %6, align 4, !tbaa !39
  %57 = sext i32 %56 to i64
  %58 = getelementptr inbounds i8, ptr %55, i64 %57
  %59 = load ptr, ptr %5, align 8, !tbaa !50
  %60 = getelementptr inbounds nuw %struct.GetByteContext, ptr %59, i32 0, i32 0
  store ptr %58, ptr %60, align 8, !tbaa !63
  br label %83

61:                                               ; preds = %3
  %62 = load i32, ptr %6, align 4, !tbaa !39
  %63 = load ptr, ptr %5, align 8, !tbaa !50
  %64 = getelementptr inbounds nuw %struct.GetByteContext, ptr %63, i32 0, i32 1
  %65 = load ptr, ptr %64, align 8, !tbaa !65
  %66 = load ptr, ptr %5, align 8, !tbaa !50
  %67 = getelementptr inbounds nuw %struct.GetByteContext, ptr %66, i32 0, i32 2
  %68 = load ptr, ptr %67, align 8, !tbaa !64
  %69 = ptrtoint ptr %65 to i64
  %70 = ptrtoint ptr %68 to i64
  %71 = sub i64 %69, %70
  %72 = trunc i64 %71 to i32
  %73 = call i32 @av_clip_c(i32 noundef %62, i32 noundef 0, i32 noundef %72) #11
  store i32 %73, ptr %6, align 4, !tbaa !39
  %74 = load ptr, ptr %5, align 8, !tbaa !50
  %75 = getelementptr inbounds nuw %struct.GetByteContext, ptr %74, i32 0, i32 2
  %76 = load ptr, ptr %75, align 8, !tbaa !64
  %77 = load i32, ptr %6, align 4, !tbaa !39
  %78 = sext i32 %77 to i64
  %79 = getelementptr inbounds i8, ptr %76, i64 %78
  %80 = load ptr, ptr %5, align 8, !tbaa !50
  %81 = getelementptr inbounds nuw %struct.GetByteContext, ptr %80, i32 0, i32 0
  store ptr %79, ptr %81, align 8, !tbaa !63
  br label %83

82:                                               ; preds = %3
  store i32 -22, ptr %4, align 4
  br label %86

83:                                               ; preds = %61, %39, %9
  %84 = load ptr, ptr %5, align 8, !tbaa !50
  %85 = call i32 @bytestream2_tell(ptr noundef %84)
  store i32 %85, ptr %4, align 4
  br label %86

86:                                               ; preds = %83, %82
  %87 = load i32, ptr %4, align 4
  ret i32 %87
}

; Function Attrs: alwaysinline nounwind uwtable
define internal i32 @bytestream2_tell_p(ptr noundef %0) #4 {
  %2 = alloca ptr, align 8
  store ptr %0, ptr %2, align 8, !tbaa !52
  %3 = load ptr, ptr %2, align 8, !tbaa !52
  %4 = getelementptr inbounds nuw %struct.PutByteContext, ptr %3, i32 0, i32 0
  %5 = load ptr, ptr %4, align 8, !tbaa !66
  %6 = load ptr, ptr %2, align 8, !tbaa !52
  %7 = getelementptr inbounds nuw %struct.PutByteContext, ptr %6, i32 0, i32 2
  %8 = load ptr, ptr %7, align 8, !tbaa !67
  %9 = ptrtoint ptr %5 to i64
  %10 = ptrtoint ptr %8 to i64
  %11 = sub i64 %9, %10
  %12 = trunc i64 %11 to i32
  ret i32 %12
}

; Function Attrs: nounwind uwtable
define internal void @lz_copy(ptr noundef %0, ptr noundef %1, i32 noundef %2, i32 noundef %3) #1 {
  %5 = alloca ptr, align 8
  %6 = alloca ptr, align 8
  %7 = alloca i32, align 4
  %8 = alloca i32, align 4
  %9 = alloca i32, align 4
  %10 = alloca i32, align 4
  %11 = alloca i32, align 4
  %12 = alloca i32, align 4
  store ptr %0, ptr %5, align 8, !tbaa !52
  store ptr %1, ptr %6, align 8, !tbaa !50
  store i32 %2, ptr %7, align 4, !tbaa !39
  store i32 %3, ptr %8, align 4, !tbaa !39
  call void @llvm.lifetime.start.p0(i64 4, ptr %9) #9
  %13 = load i32, ptr %7, align 4, !tbaa !39
  %14 = icmp eq i32 %13, -1
  br i1 %14, label %15, label %34

15:                                               ; preds = %4
  call void @llvm.lifetime.start.p0(i64 4, ptr %10) #9
  %16 = load ptr, ptr %6, align 8, !tbaa !50
  %17 = load ptr, ptr %5, align 8, !tbaa !52
  %18 = call i32 @bytestream2_tell_p(ptr noundef %17)
  %19 = sub nsw i32 %18, 1
  %20 = call i32 @bytestream2_seek(ptr noundef %16, i32 noundef %19, i32 noundef 0)
  %21 = load ptr, ptr %6, align 8, !tbaa !50
  %22 = call i32 @bytestream2_get_byte(ptr noundef %21)
  store i32 %22, ptr %10, align 4, !tbaa !39
  store i32 0, ptr %9, align 4, !tbaa !39
  br label %23

23:                                               ; preds = %30, %15
  %24 = load i32, ptr %9, align 4, !tbaa !39
  %25 = load i32, ptr %8, align 4, !tbaa !39
  %26 = icmp ult i32 %24, %25
  br i1 %26, label %27, label %33

27:                                               ; preds = %23
  %28 = load ptr, ptr %5, align 8, !tbaa !52
  %29 = load i32, ptr %10, align 4, !tbaa !39
  call void @bytestream2_put_byte(ptr noundef %28, i32 noundef %29)
  br label %30

30:                                               ; preds = %27
  %31 = load i32, ptr %9, align 4, !tbaa !39
  %32 = add nsw i32 %31, 1
  store i32 %32, ptr %9, align 4, !tbaa !39
  br label %23, !llvm.loop !95

33:                                               ; preds = %23
  call void @llvm.lifetime.end.p0(i64 4, ptr %10) #9
  br label %79

34:                                               ; preds = %4
  %35 = load i32, ptr %7, align 4, !tbaa !39
  %36 = icmp slt i32 %35, 0
  br i1 %36, label %37, label %58

37:                                               ; preds = %34
  call void @llvm.lifetime.start.p0(i64 4, ptr %11) #9
  %38 = load ptr, ptr %5, align 8, !tbaa !52
  %39 = call i32 @bytestream2_tell_p(ptr noundef %38)
  %40 = load i32, ptr %7, align 4, !tbaa !39
  %41 = sub nsw i32 0, %40
  %42 = sub nsw i32 %39, %41
  store i32 %42, ptr %11, align 4, !tbaa !39
  %43 = load ptr, ptr %6, align 8, !tbaa !50
  %44 = load i32, ptr %11, align 4, !tbaa !39
  %45 = call i32 @bytestream2_seek(ptr noundef %43, i32 noundef %44, i32 noundef 0)
  store i32 0, ptr %9, align 4, !tbaa !39
  br label %46

46:                                               ; preds = %54, %37
  %47 = load i32, ptr %9, align 4, !tbaa !39
  %48 = load i32, ptr %8, align 4, !tbaa !39
  %49 = icmp ult i32 %47, %48
  br i1 %49, label %50, label %57

50:                                               ; preds = %46
  %51 = load ptr, ptr %5, align 8, !tbaa !52
  %52 = load ptr, ptr %6, align 8, !tbaa !50
  %53 = call i32 @bytestream2_get_byte(ptr noundef %52)
  call void @bytestream2_put_byte(ptr noundef %51, i32 noundef %53)
  br label %54

54:                                               ; preds = %50
  %55 = load i32, ptr %9, align 4, !tbaa !39
  %56 = add nsw i32 %55, 1
  store i32 %56, ptr %9, align 4, !tbaa !39
  br label %46, !llvm.loop !96

57:                                               ; preds = %46
  call void @llvm.lifetime.end.p0(i64 4, ptr %11) #9
  br label %78

58:                                               ; preds = %34
  call void @llvm.lifetime.start.p0(i64 4, ptr %12) #9
  %59 = load ptr, ptr %5, align 8, !tbaa !52
  %60 = call i32 @bytestream2_tell_p(ptr noundef %59)
  %61 = load i32, ptr %7, align 4, !tbaa !39
  %62 = add nsw i32 %60, %61
  store i32 %62, ptr %12, align 4, !tbaa !39
  %63 = load ptr, ptr %6, align 8, !tbaa !50
  %64 = load i32, ptr %12, align 4, !tbaa !39
  %65 = call i32 @bytestream2_seek(ptr noundef %63, i32 noundef %64, i32 noundef 0)
  store i32 0, ptr %9, align 4, !tbaa !39
  br label %66

66:                                               ; preds = %74, %58
  %67 = load i32, ptr %9, align 4, !tbaa !39
  %68 = load i32, ptr %8, align 4, !tbaa !39
  %69 = icmp ult i32 %67, %68
  br i1 %69, label %70, label %77

70:                                               ; preds = %66
  %71 = load ptr, ptr %5, align 8, !tbaa !52
  %72 = load ptr, ptr %6, align 8, !tbaa !50
  %73 = call i32 @bytestream2_get_byte(ptr noundef %72)
  call void @bytestream2_put_byte(ptr noundef %71, i32 noundef %73)
  br label %74

74:                                               ; preds = %70
  %75 = load i32, ptr %9, align 4, !tbaa !39
  %76 = add nsw i32 %75, 1
  store i32 %76, ptr %9, align 4, !tbaa !39
  br label %66, !llvm.loop !97

77:                                               ; preds = %66
  call void @llvm.lifetime.end.p0(i64 4, ptr %12) #9
  br label %78

78:                                               ; preds = %77, %57
  br label %79

79:                                               ; preds = %78, %33
  call void @llvm.lifetime.end.p0(i64 4, ptr %9) #9
  ret void
}