; Function Attrs: nofree norecurse nosync nounwind memory(readwrite, inaccessiblemem: none) uwtable
define internal fastcc void @lz_copy(ptr noundef captures(none) %0, ptr noundef captures(none) initializes((0, 8)) %1, i32 noundef %2, i32 noundef range(i32 -2147483645, -2147483648) %3) unnamed_addr #6 {
  %5 = icmp eq i32 %2, -1
  br i1 %5, label %6, label %48

6:                                                ; preds = %4
  %7 = load ptr, ptr %0, align 8, !tbaa !47
  %8 = getelementptr inbounds nuw i8, ptr %0, i64 16
  %9 = load ptr, ptr %8, align 8, !tbaa !48
  %10 = ptrtoint ptr %7 to i64
  %11 = ptrtoint ptr %9 to i64
  %12 = sub i64 %10, %11
  %13 = trunc i64 %12 to i32
  %14 = add nsw i32 %13, -1
  %15 = getelementptr inbounds nuw i8, ptr %1, i64 8
  %16 = load ptr, ptr %15, align 8, !tbaa !46
  %17 = getelementptr inbounds nuw i8, ptr %1, i64 16
  %18 = load ptr, ptr %17, align 8, !tbaa !45
  %19 = ptrtoint ptr %16 to i64
  %20 = ptrtoint ptr %18 to i64
  %21 = sub i64 %19, %20
  %22 = trunc i64 %21 to i32
  %..i39 = tail call i32 @llvm.smin.i32(i32 %14, i32 %22)
  %.inv = icmp sgt i32 %13, 0
  %.0.i40 = select i1 %.inv, i32 %..i39, i32 0
  %23 = sext i32 %.0.i40 to i64
  %24 = getelementptr inbounds i8, ptr %18, i64 %23
  %25 = ptrtoint ptr %24 to i64
  %26 = sub i64 %19, %25
  %27 = icmp slt i64 %26, 1
  br i1 %27, label %28, label %29

28:                                               ; preds = %6
  store ptr %16, ptr %1, align 8, !tbaa !44
  br label %bytestream2_get_byte.exit31

29:                                               ; preds = %6
  %30 = getelementptr inbounds nuw i8, ptr %24, i64 1
  store ptr %30, ptr %1, align 8, !tbaa !51
  %31 = load i8, ptr %24, align 1, !tbaa !36
  br label %bytestream2_get_byte.exit31

bytestream2_get_byte.exit31:                      ; preds = %28, %29
  %.0.i30 = phi i8 [ 0, %28 ], [ %31, %29 ]
  %.not49 = icmp eq i32 %3, 0
  br i1 %.not49, label %.loopexit, label %.lr.ph47

.lr.ph47:                                         ; preds = %bytestream2_get_byte.exit31
  %32 = getelementptr inbounds nuw i8, ptr %0, i64 24
  %33 = getelementptr inbounds nuw i8, ptr %0, i64 8
  br label %34

34:                                               ; preds = %.lr.ph47, %bytestream2_put_byte.exit35
  %.046 = phi i32 [ 0, %.lr.ph47 ], [ %47, %bytestream2_put_byte.exit35 ]
  %35 = load i32, ptr %32, align 8, !tbaa !50
  %.not.i34 = icmp eq i32 %35, 0
  br i1 %.not.i34, label %36, label %46

36:                                               ; preds = %34
  %37 = load ptr, ptr %33, align 8, !tbaa !49
  %38 = load ptr, ptr %0, align 8, !tbaa !47
  %39 = ptrtoint ptr %37 to i64
  %40 = ptrtoint ptr %38 to i64
  %41 = sub i64 %39, %40
  %42 = icmp sgt i64 %41, 0
  br i1 %42, label %43, label %46

43:                                               ; preds = %36
  store i8 %.0.i30, ptr %38, align 1, !tbaa !36
  %44 = load ptr, ptr %0, align 8, !tbaa !47
  %45 = getelementptr inbounds nuw i8, ptr %44, i64 1
  store ptr %45, ptr %0, align 8, !tbaa !47
  br label %bytestream2_put_byte.exit35

46:                                               ; preds = %36, %34
  store i32 1, ptr %32, align 8, !tbaa !50
  br label %bytestream2_put_byte.exit35

bytestream2_put_byte.exit35:                      ; preds = %43, %46
  %47 = add nuw nsw i32 %.046, 1
  %exitcond53.not = icmp eq i32 %47, %3
  br i1 %exitcond53.not, label %.loopexit, label %34, !llvm.loop !75

48:                                               ; preds = %4
  %49 = icmp slt i32 %2, 0
  %50 = load ptr, ptr %0, align 8, !tbaa !47
  %51 = getelementptr inbounds nuw i8, ptr %0, i64 16
  %52 = load ptr, ptr %51, align 8, !tbaa !48
  %53 = ptrtoint ptr %50 to i64
  %54 = ptrtoint ptr %52 to i64
  %55 = sub i64 %53, %54
  %56 = trunc i64 %55 to i32
  %57 = add nsw i32 %2, %56
  %58 = getelementptr inbounds nuw i8, ptr %1, i64 8
  %59 = load ptr, ptr %58, align 8, !tbaa !46
  %60 = getelementptr inbounds nuw i8, ptr %1, i64 16
  %61 = load ptr, ptr %60, align 8, !tbaa !45
  %62 = ptrtoint ptr %59 to i64
  %63 = ptrtoint ptr %61 to i64
  %64 = sub i64 %62, %63
  %65 = trunc i64 %64 to i32
  %66 = icmp slt i32 %57, 0
  %..i37 = tail call i32 @llvm.smin.i32(i32 %57, i32 %65)
  %.0.i38 = select i1 %66, i32 0, i32 %..i37
  %67 = sext i32 %.0.i38 to i64
  %68 = getelementptr inbounds i8, ptr %61, i64 %67
  store ptr %68, ptr %1, align 8, !tbaa !44
  %.not48 = icmp eq i32 %3, 0
  br i1 %49, label %69, label %96

69:                                               ; preds = %48
  br i1 %.not48, label %.loopexit, label %.lr.ph45

.lr.ph45:                                         ; preds = %69
  %70 = getelementptr inbounds nuw i8, ptr %0, i64 24
  %71 = getelementptr inbounds nuw i8, ptr %0, i64 8
  br label %72

72:                                               ; preds = %.lr.ph45, %bytestream2_put_byte.exit33
  %.144 = phi i32 [ 0, %.lr.ph45 ], [ %95, %bytestream2_put_byte.exit33 ]
  %73 = load ptr, ptr %58, align 8, !tbaa !46
  %74 = load ptr, ptr %1, align 8, !tbaa !44
  %75 = ptrtoint ptr %73 to i64
  %76 = ptrtoint ptr %74 to i64
  %77 = sub i64 %75, %76
  %78 = icmp slt i64 %77, 1
  br i1 %78, label %79, label %80

79:                                               ; preds = %72
  store ptr %73, ptr %1, align 8, !tbaa !44
  br label %bytestream2_get_byte.exit29

80:                                               ; preds = %72
  %81 = getelementptr inbounds nuw i8, ptr %74, i64 1
  store ptr %81, ptr %1, align 8, !tbaa !51
  %82 = load i8, ptr %74, align 1, !tbaa !36
  br label %bytestream2_get_byte.exit29

bytestream2_get_byte.exit29:                      ; preds = %79, %80
  %.0.i28 = phi i8 [ 0, %79 ], [ %82, %80 ]
  %83 = load i32, ptr %70, align 8, !tbaa !50
  %.not.i32 = icmp eq i32 %83, 0
  br i1 %.not.i32, label %84, label %94

84:                                               ; preds = %bytestream2_get_byte.exit29
  %85 = load ptr, ptr %71, align 8, !tbaa !49
  %86 = load ptr, ptr %0, align 8, !tbaa !47
  %87 = ptrtoint ptr %85 to i64
  %88 = ptrtoint ptr %86 to i64
  %89 = sub i64 %87, %88
  %90 = icmp sgt i64 %89, 0
  br i1 %90, label %91, label %94

91:                                               ; preds = %84
  store i8 %.0.i28, ptr %86, align 1, !tbaa !36
  %92 = load ptr, ptr %0, align 8, !tbaa !47
  %93 = getelementptr inbounds nuw i8, ptr %92, i64 1
  store ptr %93, ptr %0, align 8, !tbaa !47
  br label %bytestream2_put_byte.exit33

94:                                               ; preds = %84, %bytestream2_get_byte.exit29
  store i32 1, ptr %70, align 8, !tbaa !50
  br label %bytestream2_put_byte.exit33

bytestream2_put_byte.exit33:                      ; preds = %91, %94
  %95 = add nuw nsw i32 %.144, 1
  %exitcond52.not = icmp eq i32 %95, %3
  br i1 %exitcond52.not, label %.loopexit, label %72, !llvm.loop !76

96:                                               ; preds = %48
  br i1 %.not48, label %.loopexit, label %.lr.ph

.lr.ph:                                           ; preds = %96
  %97 = getelementptr inbounds nuw i8, ptr %0, i64 24
  %98 = getelementptr inbounds nuw i8, ptr %0, i64 8
  br label %99

99:                                               ; preds = %.lr.ph, %bytestream2_put_byte.exit
  %.243 = phi i32 [ 0, %.lr.ph ], [ %122, %bytestream2_put_byte.exit ]
  %100 = load ptr, ptr %58, align 8, !tbaa !46
  %101 = load ptr, ptr %1, align 8, !tbaa !44
  %102 = ptrtoint ptr %100 to i64
  %103 = ptrtoint ptr %101 to i64
  %104 = sub i64 %102, %103
  %105 = icmp slt i64 %104, 1
  br i1 %105, label %106, label %107

106:                                              ; preds = %99
  store ptr %100, ptr %1, align 8, !tbaa !44
  br label %bytestream2_get_byte.exit

107:                                              ; preds = %99
  %108 = getelementptr inbounds nuw i8, ptr %101, i64 1
  store ptr %108, ptr %1, align 8, !tbaa !51
  %109 = load i8, ptr %101, align 1, !tbaa !36
  br label %bytestream2_get_byte.exit

bytestream2_get_byte.exit:                        ; preds = %106, %107
  %.0.i = phi i8 [ 0, %106 ], [ %109, %107 ]
  %110 = load i32, ptr %97, align 8, !tbaa !50
  %.not.i = icmp eq i32 %110, 0
  br i1 %.not.i, label %111, label %121

111:                                              ; preds = %bytestream2_get_byte.exit
  %112 = load ptr, ptr %98, align 8, !tbaa !49
  %113 = load ptr, ptr %0, align 8, !tbaa !47
  %114 = ptrtoint ptr %112 to i64
  %115 = ptrtoint ptr %113 to i64
  %116 = sub i64 %114, %115
  %117 = icmp sgt i64 %116, 0
  br i1 %117, label %118, label %121

118:                                              ; preds = %111
  store i8 %.0.i, ptr %113, align 1, !tbaa !36
  %119 = load ptr, ptr %0, align 8, !tbaa !47
  %120 = getelementptr inbounds nuw i8, ptr %119, i64 1
  store ptr %120, ptr %0, align 8, !tbaa !47
  br label %bytestream2_put_byte.exit

121:                                              ; preds = %111, %bytestream2_get_byte.exit
  store i32 1, ptr %97, align 8, !tbaa !50
  br label %bytestream2_put_byte.exit

bytestream2_put_byte.exit:                        ; preds = %118, %121
  %122 = add nuw nsw i32 %.243, 1
  %exitcond.not = icmp eq i32 %122, %3
  br i1 %exitcond.not, label %.loopexit, label %99, !llvm.loop !77

.loopexit:                                        ; preds = %bytestream2_put_byte.exit, %bytestream2_put_byte.exit33, %bytestream2_put_byte.exit35, %96, %69, %bytestream2_get_byte.exit31
  ret void
}